target datalayout = "e-m:e-p270:32:32-p271:32:32-p272:64:64-i64:64-i128:128-f80:128-n8:16:32:64-S128"
target triple = "x86_64-pc-linux-gnu"

%struct.H5VL_loc_params_t = type { i32, i32, %union.anon.0 }
%union.anon.0 = type { %struct.H5VL_loc_by_idx }
%struct.H5VL_loc_by_idx = type { ptr, i32, i32, i64, i64 }
%struct.H5VL_attr_specific_args_t = type { i32, %union.anon.4 }
%union.anon.4 = type { %struct.H5VL_attr_iterate_args_t }
%struct.H5VL_attr_iterate_args_t = type { i32, i32, ptr, ptr, ptr }
%struct.anon.7 = type { ptr, ptr }

@.str = private unnamed_addr constant [97 x i8] c"generated/home/dtcxzyw/WorkSpace/Projects/compilers/llvm-opt-benchmark/bench/hdf5/hdf5/src/H5A.c\00", align 1
@H5E_CANTSET_g = external global i64, align 8
@H5E_ATTR_g = external global i64, align 8
@H5E_ARGS_g = external global i64, align 8
@H5E_BADTYPE_g = external global i64, align 8
@H5P_LST_DATASET_XFER_ID_g = external global i64, align 8
@H5E_BADVALUE_g = external global i64, align 8
@.str.43 = private unnamed_addr constant [39 x i8] c"location is not valid for an attribute\00", align 1
@H5E_CANTRENAME_g = external global i64, align 8
@.str.88 = private unnamed_addr constant [34 x i8] c"can't set object access arguments\00", align 1
@__func__.H5A__rename_api_common = private unnamed_addr constant [23 x i8] c"H5A__rename_api_common\00", align 1
@.str.99 = private unnamed_addr constant [34 x i8] c"old attribute name cannot be NULL\00", align 1
@.str.100 = private unnamed_addr constant [45 x i8] c"old attribute name cannot be an empty string\00", align 1
@.str.101 = private unnamed_addr constant [34 x i8] c"new attribute name cannot be NULL\00", align 1
@.str.102 = private unnamed_addr constant [45 x i8] c"new attribute name cannot be an empty string\00", align 1
@.str.103 = private unnamed_addr constant [23 x i8] c"can't rename attribute\00", align 1
@__func__.H5A__rename_common = private unnamed_addr constant [19 x i8] c"H5A__rename_common\00", align 1
@.str.104 = private unnamed_addr constant [41 x i8] c"can't rename attribute from '%s' to '%s'\00", align 1

; Function Attrs: nounwind uwtable
define internal i32 @H5A__rename_common(ptr noundef %0, ptr noundef %1, ptr noundef %2, ptr noundef %3, ptr noundef %4) #0 {
  %6 = alloca ptr, align 8
  %7 = alloca ptr, align 8
  %8 = alloca ptr, align 8
  %9 = alloca ptr, align 8
  %10 = alloca ptr, align 8
  %11 = alloca i32, align 4
  %12 = alloca i8, align 1
  %13 = alloca %struct.H5VL_attr_specific_args_t, align 8
  store ptr %0, ptr %6, align 8
  store ptr %1, ptr %7, align 8
  store ptr %2, ptr %8, align 8
  store ptr %3, ptr %9, align 8
  store ptr %4, ptr %10, align 8
  store i32 0, ptr %11, align 4
  store i8 0, ptr %12, align 1
  %14 = load ptr, ptr %8, align 8
  %15 = load ptr, ptr %9, align 8
  %16 = call i32 @strcmp(ptr noundef %14, ptr noundef %15) #3
  %17 = icmp ne i32 %16, 0
  br i1 %17, label %18, label %50

18:                                               ; preds = %5
  %19 = getelementptr inbounds %struct.H5VL_attr_specific_args_t, ptr %13, i32 0, i32 0
  store i32 4, ptr %19, align 8
  %20 = load ptr, ptr %8, align 8
  %21 = getelementptr inbounds %struct.H5VL_attr_specific_args_t, ptr %13, i32 0, i32 1
  %22 = getelementptr inbounds %struct.anon.7, ptr %21, i32 0, i32 0
  store ptr %20, ptr %22, align 8
  %23 = load ptr, ptr %9, align 8
  %24 = getelementptr inbounds %struct.H5VL_attr_specific_args_t, ptr %13, i32 0, i32 1
  %25 = getelementptr inbounds %struct.anon.7, ptr %24, i32 0, i32 1
  store ptr %23, ptr %25, align 8
  %26 = load ptr, ptr %6, align 8
  %27 = load ptr, ptr %7, align 8
  %28 = load i64, ptr @H5P_LST_DATASET_XFER_ID_g, align 8
  %29 = load ptr, ptr %10, align 8
  %30 = call i32 @H5VL_attr_specific(ptr noundef %26, ptr noundef %27, ptr noundef %13, i64 noundef %28, ptr noundef %29)
  %31 = icmp slt i32 %30, 0
  br i1 %31, label %32, label %49

32:                                               ; preds = %18
  br label %33

33:                                               ; preds = %32
  br label %34

34:                                               ; preds = %33
  br label %35

35:                                               ; preds = %34
  %36 = load i64, ptr @H5E_ATTR_g, align 8
  %37 = load i64, ptr @H5E_CANTRENAME_g, align 8
  %38 = load ptr, ptr %8, align 8
  %39 = load ptr, ptr %9, align 8
  %40 = call i32 (ptr, ptr, i32, i64, i64, ptr, ...) @H5E_printf_stack(ptr noundef @.str, ptr noundef @__func__.H5A__rename_common, i32 noundef 1563, i64 noundef %36, i64 noundef %37, ptr noundef @.str.104, ptr noundef %38, ptr noundef %39)
  br label %41

41:                                               ; preds = %35
  store i8 1, ptr %12, align 1
  %42 = load i8, ptr %12, align 1
  %43 = trunc i8 %42 to i1
  %44 = zext i1 %43 to i8
  store i8 %44, ptr %12, align 1
  br label %45

45:                                               ; preds = %41
  br label %46

46:                                               ; preds = %45
  store i32 -1, ptr %11, align 4
  br label %51

47:                                               ; No predecessors!
  br label %48

48:                                               ; preds = %47
  br label %49

49:                                               ; preds = %48, %18
  br label %50

50:                                               ; preds = %49, %5
  br label %51

51:                                               ; preds = %50, %46
  %52 = load i32, ptr %11, align 4
  ret i32 %52
}

; Function Attrs: nounwind uwtable
define internal i32 @H5A__rename_api_common(i64 noundef %0, ptr noundef %1, ptr noundef %2, ptr noundef %3, ptr noundef %4) #0 {
  %6 = alloca i64, align 8
  %7 = alloca ptr, align 8
  %8 = alloca ptr, align 8
  %9 = alloca ptr, align 8
  %10 = alloca ptr, align 8
  %11 = alloca ptr, align 8
  %12 = alloca ptr, align 8
  %13 = alloca %struct.H5VL_loc_params_t, align 8
  %14 = alloca i32, align 4
  %15 = alloca i8, align 1
  store i64 %0, ptr %6, align 8
  store ptr %1, ptr %7, align 8
  store ptr %2, ptr %8, align 8
  store ptr %3, ptr %9, align 8
  store ptr %4, ptr %10, align 8
  store ptr null, ptr %11, align 8
  %16 = load ptr, ptr %10, align 8
  %17 = icmp ne ptr %16, null
  br i1 %17, label %18, label %20

18:                                               ; preds = %5
  %19 = load ptr, ptr %10, align 8
  br label %21

20:                                               ; preds = %5
  br label %21

21:                                               ; preds = %20, %18
  %22 = phi ptr [ %19, %18 ], [ %11, %20 ]
  store ptr %22, ptr %12, align 8
  store i32 0, ptr %14, align 4
  store i8 0, ptr %15, align 1
  %23 = load i64, ptr %6, align 8
  %24 = call i32 @H5I_get_type(i64 noundef %23)
  %25 = icmp eq i32 7, %24
  br i1 %25, label %26, label %41

26:                                               ; preds = %21
  br label %27

27:                                               ; preds = %26
  br label %28

28:                                               ; preds = %27
  br label %29

29:                                               ; preds = %28
  %30 = load i64, ptr @H5E_ARGS_g, align 8
  %31 = load i64, ptr @H5E_BADTYPE_g, align 8
  %32 = call i32 (ptr, ptr, i32, i64, i64, ptr, ...) @H5E_printf_stack(ptr noundef @.str, ptr noundef @__func__.H5A__rename_api_common, i32 noundef 1592, i64 noundef %30, i64 noundef %31, ptr noundef @.str.43)
  br label %33

33:                                               ; preds = %29
  store i8 1, ptr %15, align 1
  %34 = load i8, ptr %15, align 1
  %35 = trunc i8 %34 to i1
  %36 = zext i1 %35 to i8
  store i8 %36, ptr %15, align 1
  br label %37

37:                                               ; preds = %33
  br label %38

38:                                               ; preds = %37
  store i32 -1, ptr %14, align 4
  br label %159

39:                                               ; No predecessors!
  br label %40

40:                                               ; preds = %39
  br label %41

41:                                               ; preds = %40, %21
  %42 = load ptr, ptr %7, align 8
  %43 = icmp ne ptr %42, null
  br i1 %43, label %59, label %44

44:                                               ; preds = %41
  br label %45

45:                                               ; preds = %44
  br label %46

46:                                               ; preds = %45
  br label %47

47:                                               ; preds = %46
  %48 = load i64, ptr @H5E_ARGS_g, align 8
  %49 = load i64, ptr @H5E_BADVALUE_g, align 8
  %50 = call i32 (ptr, ptr, i32, i64, i64, ptr, ...) @H5E_printf_stack(ptr noundef @.str, ptr noundef @__func__.H5A__rename_api_common, i32 noundef 1594, i64 noundef %48, i64 noundef %49, ptr noundef @.str.99)
  br label %51

51:                                               ; preds = %47
  store i8 1, ptr %15, align 1
  %52 = load i8, ptr %15, align 1
  %53 = trunc i8 %52 to i1
  %54 = zext i1 %53 to i8
  store i8 %54, ptr %15, align 1
  br label %55

55:                                               ; preds = %51
  br label %56

56:                                               ; preds = %55
  store i32 -1, ptr %14, align 4
  br label %159

57:                                               ; No predecessors!
  br label %58

58:                                               ; preds = %57
  br label %59

59:                                               ; preds = %58, %41
  %60 = load ptr, ptr %7, align 8
  %61 = load i8, ptr %60, align 1
  %62 = icmp ne i8 %61, 0
  br i1 %62, label %78, label %63

63:                                               ; preds = %59
  br label %64

64:                                               ; preds = %63
  br label %65

65:                                               ; preds = %64
  br label %66

66:                                               ; preds = %65
  %67 = load i64, ptr @H5E_ARGS_g, align 8
  %68 = load i64, ptr @H5E_BADVALUE_g, align 8
  %69 = call i32 (ptr, ptr, i32, i64, i64, ptr, ...) @H5E_printf_stack(ptr noundef @.str, ptr noundef @__func__.H5A__rename_api_common, i32 noundef 1596, i64 noundef %67, i64 noundef %68, ptr noundef @.str.100)
  br label %70

70:                                               ; preds = %66
  store i8 1, ptr %15, align 1
  %71 = load i8, ptr %15, align 1
  %72 = trunc i8 %71 to i1
  %73 = zext i1 %72 to i8
  store i8 %73, ptr %15, align 1
  br label %74

74:                                               ; preds = %70
  br label %75

75:                                               ; preds = %74
  store i32 -1, ptr %14, align 4
  br label %159

76:                                               ; No predecessors!
  br label %77

77:                                               ; preds = %76
  br label %78

78:                                               ; preds = %77, %59
  %79 = load ptr, ptr %8, align 8
  %80 = icmp ne ptr %79, null
  br i1 %80, label %96, label %81

81:                                               ; preds = %78
  br label %82

82:                                               ; preds = %81
  br label %83

83:                                               ; preds = %82
  br label %84

84:                                               ; preds = %83
  %85 = load i64, ptr @H5E_ARGS_g, align 8
  %86 = load i64, ptr @H5E_BADVALUE_g, align 8
  %87 = call i32 (ptr, ptr, i32, i64, i64, ptr, ...) @H5E_printf_stack(ptr noundef @.str, ptr noundef @__func__.H5A__rename_api_common, i32 noundef 1598, i64 noundef %85, i64 noundef %86, ptr noundef @.str.101)
  br label %88

88:                                               ; preds = %84
  store i8 1, ptr %15, align 1
  %89 = load i8, ptr %15, align 1
  %90 = trunc i8 %89 to i1
  %91 = zext i1 %90 to i8
  store i8 %91, ptr %15, align 1
  br label %92

92:                                               ; preds = %88
  br label %93

93:                                               ; preds = %92
  store i32 -1, ptr %14, align 4
  br label %159

94:                                               ; No predecessors!
  br label %95

95:                                               ; preds = %94
  br label %96

96:                                               ; preds = %95, %78
  %97 = load ptr, ptr %8, align 8
  %98 = load i8, ptr %97, align 1
  %99 = icmp ne i8 %98, 0
  br i1 %99, label %115, label %100

100:                                              ; preds = %96
  br label %101

101:                                              ; preds = %100
  br label %102

102:                                              ; preds = %101
  br label %103

103:                                              ; preds = %102
  %104 = load i64, ptr @H5E_ARGS_g, align 8
  %105 = load i64, ptr @H5E_BADVALUE_g, align 8
  %106 = call i32 (ptr, ptr, i32, i64, i64, ptr, ...) @H5E_printf_stack(ptr noundef @.str, ptr noundef @__func__.H5A__rename_api_common, i32 noundef 1600, i64 noundef %104, i64 noundef %105, ptr noundef @.str.102)
  br label %107

107:                                              ; preds = %103
  store i8 1, ptr %15, align 1
  %108 = load i8, ptr %15, align 1
  %109 = trunc i8 %108 to i1
  %110 = zext i1 %109 to i8
  store i8 %110, ptr %15, align 1
  br label %111

111:                                              ; preds = %107
  br label %112

112:                                              ; preds = %111
  store i32 -1, ptr %14, align 4
  br label %159

113:                                              ; No predecessors!
  br label %114

114:                                              ; preds = %113
  br label %115

115:                                              ; preds = %114, %96
  %116 = load i64, ptr %6, align 8
  %117 = load ptr, ptr %12, align 8
  %118 = call i32 @H5VL_setup_loc_args(i64 noundef %116, ptr noundef %117, ptr noundef %13)
  %119 = icmp slt i32 %118, 0
  br i1 %119, label %120, label %135

120:                                              ; preds = %115
  br label %121

121:                                              ; preds = %120
  br label %122

122:                                              ; preds = %121
  br label %123

123:                                              ; preds = %122
  %124 = load i64, ptr @H5E_ATTR_g, align 8
  %125 = load i64, ptr @H5E_CANTSET_g, align 8
  %126 = call i32 (ptr, ptr, i32, i64, i64, ptr, ...) @H5E_printf_stack(ptr noundef @.str, ptr noundef @__func__.H5A__rename_api_common, i32 noundef 1604, i64 noundef %124, i64 noundef %125, ptr noundef @.str.88)
  br label %127

127:                                              ; preds = %123
  store i8 1, ptr %15, align 1
  %128 = load i8, ptr %15, align 1
  %129 = trunc i8 %128 to i1
  %130 = zext i1 %129 to i8
  store i8 %130, ptr %15, align 1
  br label %131

131:                                              ; preds = %127
  br label %132

132:                                              ; preds = %131
  store i32 -1, ptr %14, align 4
  br label %159

133:                                              ; No predecessors!
  br label %134

134:                                              ; preds = %133
  br label %135

135:                                              ; preds = %134, %115
  %136 = load ptr, ptr %12, align 8
  %137 = load ptr, ptr %136, align 8
  %138 = load ptr, ptr %7, align 8
  %139 = load ptr, ptr %8, align 8
  %140 = load ptr, ptr %9, align 8
  %141 = call i32 @H5A__rename_common(ptr noundef %137, ptr noundef %13, ptr noundef %138, ptr noundef %139, ptr noundef %140)
  %142 = icmp slt i32 %141, 0
  br i1 %142, label %143, label %158

143:                                              ; preds = %135
  br label %144

144:                                              ; preds = %143
  br label %145

145:                                              ; preds = %144
  br label %146

146:                                              ; preds = %145
  %147 = load i64, ptr @H5E_ATTR_g, align 8
  %148 = load i64, ptr @H5E_CANTRENAME_g, align 8
  %149 = call i32 (ptr, ptr, i32, i64, i64, ptr, ...) @H5E_printf_stack(ptr noundef @.str, ptr noundef @__func__.H5A__rename_api_common, i32 noundef 1608, i64 noundef %147, i64 noundef %148, ptr noundef @.str.103)
  br label %150

150:                                              ; preds = %146
  store i8 1, ptr %15, align 1
  %151 = load i8, ptr %15, align 1
  %152 = trunc i8 %151 to i1
  %153 = zext i1 %152 to i8
  store i8 %153, ptr %15, align 1
  br label %154

154:                                              ; preds = %150
  br label %155

155:                                              ; preds = %154
  store i32 -1, ptr %14, align 4
  br label %159

156:                                              ; No predecessors!
  br label %157

157:                                              ; preds = %156
  br label %158

158:                                              ; preds = %157, %135
  br label %159

159:                                              ; preds = %158, %155, %132, %112, %93, %75, %56, %38
  %160 = load i32, ptr %14, align 4
  ret i32 %160
}