; Function Attrs: nounwind uwtable
define internal fastcc range(i32 -1, 1) i32 @H5A__rename_api_common(i64 noundef %0, ptr noundef %1, ptr noundef %2, ptr noundef %3, ptr noundef %4) unnamed_addr #0 {
  %6 = alloca %struct.H5VL_attr_specific_args_t, align 8
  %7 = alloca ptr, align 8
  %8 = alloca %struct.H5VL_loc_params_t, align 8
  store ptr null, ptr %7, align 8
  %.not = icmp eq ptr %4, null
  %9 = select i1 %.not, ptr %7, ptr %4
  %10 = tail call i32 @H5I_get_type(i64 noundef %0) #4
  %11 = icmp eq i32 %10, 7
  br i1 %11, label %12, label %16

12:                                               ; preds = %5
  %13 = load i64, ptr @H5E_ARGS_g, align 8
  %14 = load i64, ptr @H5E_BADTYPE_g, align 8
  %15 = tail call i32 (ptr, ptr, i32, i64, i64, ptr, ...) @H5E_printf_stack(ptr noundef nonnull @.str, ptr noundef nonnull @__func__.H5A__rename_api_common, i32 noundef 1592, i64 noundef %13, i64 noundef %14, ptr noundef nonnull @.str.43) #4
  br label %61

16:                                               ; preds = %5
  %.not22 = icmp eq ptr %1, null
  br i1 %.not22, label %17, label %21

17:                                               ; preds = %16
  %18 = load i64, ptr @H5E_ARGS_g, align 8
  %19 = load i64, ptr @H5E_BADVALUE_g, align 8
  %20 = tail call i32 (ptr, ptr, i32, i64, i64, ptr, ...) @H5E_printf_stack(ptr noundef nonnull @.str, ptr noundef nonnull @__func__.H5A__rename_api_common, i32 noundef 1594, i64 noundef %18, i64 noundef %19, ptr noundef nonnull @.str.99) #4
  br label %61

21:                                               ; preds = %16
  %22 = load i8, ptr %1, align 1
  %.not23 = icmp eq i8 %22, 0
  br i1 %.not23, label %23, label %27

23:                                               ; preds = %21
  %24 = load i64, ptr @H5E_ARGS_g, align 8
  %25 = load i64, ptr @H5E_BADVALUE_g, align 8
  %26 = tail call i32 (ptr, ptr, i32, i64, i64, ptr, ...) @H5E_printf_stack(ptr noundef nonnull @.str, ptr noundef nonnull @__func__.H5A__rename_api_common, i32 noundef 1596, i64 noundef %24, i64 noundef %25, ptr noundef nonnull @.str.100) #4
  br label %61

27:                                               ; preds = %21
  %.not24 = icmp eq ptr %2, null
  br i1 %.not24, label %28, label %32

28:                                               ; preds = %27
  %29 = load i64, ptr @H5E_ARGS_g, align 8
  %30 = load i64, ptr @H5E_BADVALUE_g, align 8
  %31 = tail call i32 (ptr, ptr, i32, i64, i64, ptr, ...) @H5E_printf_stack(ptr noundef nonnull @.str, ptr noundef nonnull @__func__.H5A__rename_api_common, i32 noundef 1598, i64 noundef %29, i64 noundef %30, ptr noundef nonnull @.str.101) #4
  br label %61

32:                                               ; preds = %27
  %33 = load i8, ptr %2, align 1
  %.not25 = icmp eq i8 %33, 0
  br i1 %.not25, label %34, label %38

34:                                               ; preds = %32
  %35 = load i64, ptr @H5E_ARGS_g, align 8
  %36 = load i64, ptr @H5E_BADVALUE_g, align 8
  %37 = tail call i32 (ptr, ptr, i32, i64, i64, ptr, ...) @H5E_printf_stack(ptr noundef nonnull @.str, ptr noundef nonnull @__func__.H5A__rename_api_common, i32 noundef 1600, i64 noundef %35, i64 noundef %36, ptr noundef nonnull @.str.102) #4
  br label %61

38:                                               ; preds = %32
  %39 = call i32 @H5VL_setup_loc_args(i64 noundef %0, ptr noundef nonnull %9, ptr noundef nonnull %8) #4
  %40 = icmp slt i32 %39, 0
  br i1 %40, label %41, label %45

41:                                               ; preds = %38
  %42 = load i64, ptr @H5E_ATTR_g, align 8
  %43 = load i64, ptr @H5E_CANTSET_g, align 8
  %44 = call i32 (ptr, ptr, i32, i64, i64, ptr, ...) @H5E_printf_stack(ptr noundef nonnull @.str, ptr noundef nonnull @__func__.H5A__rename_api_common, i32 noundef 1604, i64 noundef %42, i64 noundef %43, ptr noundef nonnull @.str.88) #4
  br label %61

45:                                               ; preds = %38
  %46 = load ptr, ptr %9, align 8
  call void @llvm.lifetime.start.p0(i64 40, ptr nonnull %6)
  %47 = call i32 @strcmp(ptr noundef nonnull dereferenceable(1) %1, ptr noundef nonnull dereferenceable(1) %2) #5
  %.not.i = icmp eq i32 %47, 0
  br i1 %.not.i, label %H5A__rename_common.exit.thread, label %48

48:                                               ; preds = %45
  store i32 4, ptr %6, align 8
  %49 = getelementptr inbounds i8, ptr %6, i64 8
  store ptr %1, ptr %49, align 8
  %50 = getelementptr inbounds i8, ptr %6, i64 16
  store ptr %2, ptr %50, align 8
  %51 = load i64, ptr @H5P_LST_DATASET_XFER_ID_g, align 8
  %52 = call i32 @H5VL_attr_specific(ptr noundef %46, ptr noundef nonnull %8, ptr noundef nonnull %6, i64 noundef %51, ptr noundef %3) #4
  %53 = icmp slt i32 %52, 0
  br i1 %53, label %54, label %H5A__rename_common.exit.thread

H5A__rename_common.exit.thread:                   ; preds = %48, %45
  call void @llvm.lifetime.end.p0(i64 40, ptr nonnull %6)
  br label %61

54:                                               ; preds = %48
  %55 = load i64, ptr @H5E_ATTR_g, align 8
  %56 = load i64, ptr @H5E_CANTRENAME_g, align 8
  %57 = call i32 (ptr, ptr, i32, i64, i64, ptr, ...) @H5E_printf_stack(ptr noundef nonnull @.str, ptr noundef nonnull @__func__.H5A__rename_common, i32 noundef 1563, i64 noundef %55, i64 noundef %56, ptr noundef nonnull @.str.104, ptr noundef nonnull %1, ptr noundef nonnull %2) #4
  call void @llvm.lifetime.end.p0(i64 40, ptr nonnull %6)
  %58 = load i64, ptr @H5E_ATTR_g, align 8
  %59 = load i64, ptr @H5E_CANTRENAME_g, align 8
  %60 = call i32 (ptr, ptr, i32, i64, i64, ptr, ...) @H5E_printf_stack(ptr noundef nonnull @.str, ptr noundef nonnull @__func__.H5A__rename_api_common, i32 noundef 1608, i64 noundef %58, i64 noundef %59, ptr noundef nonnull @.str.103) #4
  br label %61

61:                                               ; preds = %H5A__rename_common.exit.thread, %54, %41, %34, %28, %23, %17, %12
  %.0 = phi i32 [ -1, %12 ], [ -1, %41 ], [ -1, %54 ], [ -1, %34 ], [ -1, %28 ], [ -1, %23 ], [ -1, %17 ], [ 0, %H5A__rename_common.exit.thread ]
  ret i32 %.0
}